(lp1
(lp2
I167
aI21
aI0
aI0
aa(lp3
I152
aI17
aI0
aI0
aa(lp4
I73
aI7
aI0
aI0
aa(lp5
I115
aI12
aI0
aI0
aa(lp6
I61
aI8
aI0
aI0
aa(lp7
I122
aI11
aI0
aI0
aa(lp8
I144
aI13
aI0
aI0
aa(lp9
I55
aI5
aI0
aI0
aa(lp10
I63
aI11
aI0
aI0
aa(lp11
I83
aI7
aI0
aI0
aa(lp12
I86
aI10
aI0
aI0
aa(lp13
I93
aI12
aI0
aI0
aa(lp14
I145
aI15
aI0
aI0
aa(lp15
I66
aI8
aI0
aI0
aa(lp16
I63
aI8
aI0
aI0
aa(lp17
I48
aI4
aI0
aI0
aa(lp18
I45
aI9
aI0
aI0
aa(lp19
I75
aI7
aI0
aI0
aa(lp20
I95
aI8
aI0
aI0
aa(lp21
I51
aI10
aI0
aI0
aa(lp22
I92
aI15
aI0
aI0
aa(lp23
I256
aI29
aI0
aI0
aa(lp24
I43
aI5
aI0
aI0
aa(lp25
I167
aI20
aI0
aI0
aa(lp26
I62
aI7
aI0
aI0
aa(lp27
I65
aI10
aI0
aI0
aa(lp28
I78
aI7
aI0
aI0
aa(lp29
I149
aI11
aI0
aI0
aa(lp30
I140
aI19
aI0
aI0
aa(lp31
I71
aI13
aI0
aI0
aa(lp32
I322
aI31
aI0
aI0
aa(lp33
I71
aI6
aI0
aI0
aa(lp34
I59
aI2
aI0
aI0
aa(lp35
I253
aI34
aI0
aI0
aa(lp36
I80
aI13
aI0
aI0
aa(lp37
I73
aI10
aI0
aI0
aa(lp38
I45
aI7
aI0
aI0
aa(lp39
I208
aI15
aI0
aI0
aa(lp40
I108
aI17
aI0
aI0
aa(lp41
I153
aI13
aI0
aI0
aa(lp42
I294
aI25
aI0
aI0
aa(lp43
I70
aI8
aI0
aI0
aa(lp44
I174
aI18
aI0
aI0
aa(lp45
I116
aI14
aI0
aI0
aa(lp46
I64
aI11
aI0
aI0
aa(lp47
I45
aI11
aI0
aI0
aa(lp48
I63
aI5
aI0
aI0
aa(lp49
I67
aI10
aI0
aI0
aa(lp50
I150
aI21
aI0
aI0
aa(lp51
I92
aI11
aI0
aI0
aa(lp52
I173
aI19
aI0
aI0
aa(lp53
I106
aI11
aI0
aI0
aa(lp54
I39
aI4
aI0
aI0
aa(lp55
I42
aI2
aI0
aI0
aa(lp56
I42
aI8
aI0
aI0
aa(lp57
I206
aI26
aI0
aI0
aa(lp58
I120
aI12
aI0
aI0
aa(lp59
I74
aI11
aI0
aI0
aa(lp60
I105
aI11
aI0
aI0
aa(lp61
I392
aI36
aI0
aI0
aa(lp62
I146
aI16
aI0
aI0
aa(lp63
I93
aI12
aI0
aI0
aa(lp64
I146
aI19
aI0
aI0
aa(lp65
I14
aI3
aI0
aI0
aa(lp66
I157
aI14
aI0
aI0
aa(lp67
I42
aI5
aI0
aI0
aa(lp68
I131
aI17
aI0
aI0
aa(lp69
I77
aI9
aI0
aI0
aa(lp70
I80
aI12
aI0
aI0
aa(lp71
I118
aI11
aI0
aI0
aa(lp72
I100
aI10
aI0
aI0
aa(lp73
I97
aI12
aI0
aI0
aa(lp74
I136
aI15
aI0
aI0
aa(lp75
I53
aI6
aI0
aI0
aa(lp76
I57
aI11
aI0
aI0
aa(lp77
I20
aI4
aI0
aI0
aa(lp78
I40
aI8
aI0
aI0
aa(lp79
I1203
aI65
aI0
aI0
aa(lp80
I28
aI7
aI0
aI0
aa(lp81
I37
aI7
aI0
aI0
aa(lp82
I121
aI10
aI0
aI0
aa(lp83
I156
aI13
aI0
aI0
aa(lp84
I158
aI14
aI0
aI0
aa(lp85
I151
aI7
aI0
aI0
aa(lp86
I93
aI14
aI0
aI0
aa(lp87
I40
aI7
aI0
aI0
aa(lp88
I44
aI5
aI0
aI0
aa(lp89
I170
aI16
aI0
aI0
aa(lp90
I202
aI17
aI0
aI0
aa(lp91
I512
aI49
aI0
aI0
aa(lp92
I48
aI8
aI0
aI0
aa(lp93
I49
aI7
aI0
aI0
aa(lp94
I176
aI25
aI0
aI0
aa(lp95
I20
aI2
aI0
aI0
aa(lp96
I36
aI4
aI0
aI0
aa(lp97
I97
aI10
aI0
aI0
aa(lp98
I179
aI19
aI0
aI0
aa(lp99
I66
aI8
aI0
aI0
aa(lp100
I275
aI35
aI0
aI0
aa(lp101
I119
aI11
aI0
aI0
aa(lp102
I82
aI17
aI0
aI0
aa(lp103
I96
aI12
aI0
aI0
aa(lp104
I46
aI4
aI0
aI0
aa(lp105
I289
aI41
aI0
aI0
aa(lp106
I191
aI18
aI0
aI0
aa(lp107
I114
aI9
aI0
aI0
aa(lp108
I230
aI28
aI0
aI0
aa(lp109
I47
aI5
aI0
aI0
aa(lp110
I136
aI18
aI0
aI0
aa(lp111
I35
aI6
aI0
aI0
aa(lp112
I66
aI13
aI0
aI0
aa(lp113
I109
aI15
aI0
aI0
aa(lp114
I56
aI4
aI0
aI0
aa(lp115
I141
aI18
aI0
aI0
aa(lp116
I142
aI12
aI0
aI0
aa(lp117
I121
aI13
aI0
aI0
aa(lp118
I81
aI5
aI0
aI0
aa(lp119
I122
aI12
aI0
aI0
aa(lp120
I110
aI13
aI0
aI0
aa(lp121
I158
aI10
aI0
aI0
aa(lp122
I55
aI10
aI0
aI0
aa(lp123
I146
aI18
aI0
aI0
aa(lp124
I109
aI10
aI0
aI0
aa(lp125
I225
aI16
aI0
aI0
aa(lp126
I163
aI15
aI0
aI0
aa(lp127
I70
aI9
aI0
aI0
aa(lp128
I108
aI7
aI0
aI0
aa(lp129
I407
aI31
aI0
aI0
aa(lp130
I44
aI3
aI0
aI0
aa(lp131
I139
aI18
aI0
aI0
aa(lp132
I85
aI10
aI0
aI0
aa(lp133
I82
aI7
aI0
aI0
aa(lp134
I92
aI12
aI0
aI0
aa(lp135
I132
aI17
aI0
aI0
aa(lp136
I147
aI18
aI0
aI0
aa(lp137
I136
aI15
aI0
aI0
aa(lp138
I130
aI12
aI0
aI0
aa(lp139
I55
aI4
aI0
aI0
aa(lp140
I265
aI30
aI0
aI0
aa(lp141
I85
aI12
aI0
aI0
aa(lp142
I247
aI29
aI0
aI0
aa(lp143
I77
aI9
aI0
aI0
aa(lp144
I102
aI12
aI0
aI0
aa(lp145
I153
aI25
aI0
aI0
aa(lp146
I73
aI7
aI0
aI0
aa(lp147
I66
aI8
aI0
aI0
aa(lp148
I158
aI16
aI0
aI0
aa(lp149
I107
aI9
aI0
aI0
aa(lp150
I229
aI20
aI0
aI0
aa(lp151
I93
aI13
aI0
aI0
aa.